target datalayout = "e-m:e-p270:32:32-p271:32:32-p272:64:64-i64:64-i128:128-f80:128-n8:16:32:64-S128"
target triple = "x86_64-pc-linux-gnu"

; Function Attrs: nounwind uwtable
define i32 @evtag_encode_tag(ptr noundef %0, i32 noundef %1) #0 {
  %3 = alloca ptr, align 8
  %4 = alloca i32, align 4
  %5 = alloca i32, align 4
  %6 = alloca [5 x i8], align 1
  %7 = alloca i8, align 1
  store ptr %0, ptr %3, align 8
  store i32 %1, ptr %4, align 4
  call void @llvm.lifetime.start.p0(i64 4, ptr %5) #6
  store i32 0, ptr %5, align 4
  call void @llvm.lifetime.start.p0(i64 5, ptr %6) #6
  %8 = getelementptr inbounds [5 x i8], ptr %6, i64 0, i64 0
  call void @llvm.memset.p0.i64(ptr align 1 %8, i8 0, i64 5, i1 false)
  br label %9

9:                                                ; preds = %28, %2
  call void @llvm.lifetime.start.p0(i64 1, ptr %7) #6
  %10 = load i32, ptr %4, align 4
  %11 = and i32 %10, 127
  %12 = trunc i32 %11 to i8
  store i8 %12, ptr %7, align 1
  %13 = load i32, ptr %4, align 4
  %14 = lshr i32 %13, 7
  store i32 %14, ptr %4, align 4
  %15 = load i32, ptr %4, align 4
  %16 = icmp ne i32 %15, 0
  br i1 %16, label %17, label %22

17:                                               ; preds = %9
  %18 = load i8, ptr %7, align 1
  %19 = zext i8 %18 to i32
  %20 = or i32 %19, 128
  %21 = trunc i32 %20 to i8
  store i8 %21, ptr %7, align 1
  br label %22

22:                                               ; preds = %17, %9
  %23 = load i8, ptr %7, align 1
  %24 = load i32, ptr %5, align 4
  %25 = add nsw i32 %24, 1
  store i32 %25, ptr %5, align 4
  %26 = sext i32 %24 to i64
  %27 = getelementptr inbounds [5 x i8], ptr %6, i64 0, i64 %26
  store i8 %23, ptr %27, align 1
  call void @llvm.lifetime.end.p0(i64 1, ptr %7) #6
  br label %28

28:                                               ; preds = %22
  %29 = load i32, ptr %4, align 4
  %30 = icmp ne i32 %29, 0
  br i1 %30, label %9, label %31, !llvm.loop !6

31:                                               ; preds = %28
  %32 = load ptr, ptr %3, align 8
  %33 = icmp ne ptr %32, null
  br i1 %33, label %34, label %40

34:                                               ; preds = %31
  %35 = load ptr, ptr %3, align 8
  %36 = getelementptr inbounds [5 x i8], ptr %6, i64 0, i64 0
  %37 = load i32, ptr %5, align 4
  %38 = sext i32 %37 to i64
  %39 = call i32 @evbuffer_add(ptr noundef %35, ptr noundef %36, i64 noundef %38)
  br label %40

40:                                               ; preds = %34, %31
  %41 = load i32, ptr %5, align 4
  call void @llvm.lifetime.end.p0(i64 5, ptr %6) #6
  call void @llvm.lifetime.end.p0(i64 4, ptr %5) #6
  ret i32 %41
}