; Function Attrs: nounwind uwtable
define range(i32 -2147483647, -2147483648) i32 @evtag_encode_tag(ptr noundef %0, i32 noundef %1) local_unnamed_addr #1 {
  %3 = alloca [5 x i8], align 1
  call void @llvm.lifetime.start.p0(i64 5, ptr nonnull %3) #7
  call void @llvm.memset.p0.i64(ptr noundef nonnull align 1 dereferenceable(5) %3, i8 0, i64 5, i1 false)
  br label %4

4:                                                ; preds = %4, %2
  %indvars.iv = phi i64 [ %indvars.iv.next, %4 ], [ 0, %2 ]
  %.011 = phi i32 [ %7, %4 ], [ %1, %2 ]
  %5 = trunc i32 %.011 to i8
  %6 = and i8 %5, 127
  %7 = lshr i32 %.011, 7
  %.not = icmp ult i32 %.011, 128
  %masksel = select i1 %.not, i8 0, i8 -128
  %.0 = or disjoint i8 %6, %masksel
  %indvars.iv.next = add nuw nsw i64 %indvars.iv, 1
  %8 = getelementptr inbounds nuw [5 x i8], ptr %3, i64 0, i64 %indvars.iv
  store i8 %.0, ptr %8, align 1
  br i1 %.not, label %9, label %4, !llvm.loop !6

9:                                                ; preds = %4
  %.not14 = icmp eq ptr %0, null
  br i1 %.not14, label %13, label %10

10:                                               ; preds = %9
  %11 = and i64 %indvars.iv.next, 4294967295
  %12 = call i32 @evbuffer_add(ptr noundef nonnull %0, ptr noundef nonnull %3, i64 noundef %11) #7
  br label %13

13:                                               ; preds = %10, %9
  %14 = trunc nuw nsw i64 %indvars.iv.next to i32
  call void @llvm.lifetime.end.p0(i64 5, ptr nonnull %3) #7
  ret i32 %14
}